(dp1
S'baseline_ols'
p2
(dp3
cnumpy.core.multiarray
scalar
p4
(cnumpy
dtype
p5
(S'S2'
I0
I1
tRp6
(I3
S'|'
NNNI2
I1
I0
tbS'rr'
tRp7
g4
(g5
(S'f8'
I0
I1
tRp8
(I3
S'<'
NNNI-1
I-1
I0
tbS'\xac\xee\xde\xac\xda-\xd6?'
tRp9
sg4
(g5
(S'S1'
I0
I1
tRp10
(I3
S'|'
NNNI1
I1
I0
tbS'B'
tRp11
g4
(g8
S'\xa5\xa0\xcc\r1 \xcd?'
tRp12
sg4
(g5
(S'S1'
I0
I1
tRp13
(I3
S'|'
NNNI1
I1
I0
tbS'D'
tRp14
g4
(g8
S'K\xb9I\xe5\xc3\xb8\xcf?'
tRp15
sg4
(g5
(S'S1'
I0
I1
tRp16
(I3
S'|'
NNNI1
I1
I0
tbS'G'
tRp17
g4
(g8
S'\x81R\x9a\xff*\xdc\xcd?'
tRp18
sg4
(g5
(S'S1'
I0
I1
tRp19
(I3
S'|'
NNNI1
I1
I0
tbS'N'
tRp20
g4
(g8
S'$c\x199u\x82\xcb?'
tRp21
sg4
(g5
(S'S1'
I0
I1
tRp22
(I3
S'|'
NNNI1
I1
I0
tbS'Y'
tRp23
g4
(g8
S';S\x99\x99\x99\x99\xd9?'
tRp24
sg4
(g5
(S'S1'
I0
I1
tRp25
(I3
S'|'
NNNI1
I1
I0
tbS'a'
tRp26
g4
(g8
S'\x90L\xdb\x01m\x13\xd7?'
tRp27
sg4
(g5
(S'S1'
I0
I1
tRp28
(I3
S'|'
NNNI1
I1
I0
tbS'c'
tRp29
g4
(g8
S'r\x82\xfd\xd8\x8f\xfd\xd8?'
tRp30
sg4
(g5
(S'S1'
I0
I1
tRp31
(I3
S'|'
NNNI1
I1
I0
tbS'b'
tRp32
g4
(g8
S'\x8b\x01\xc2\x07\x1f|\xc8?'
tRp33
sg4
(g5
(S'S1'
I0
I1
tRp34
(I3
S'|'
NNNI1
I1
I0
tbS'e'
tRp35
g4
(g8
S'VJ\x04\xe7\xe2\xa4\xd9?'
tRp36
sg4
(g5
(S'S1'
I0
I1
tRp37
(I3
S'|'
NNNI1
I1
I0
tbS'd'
tRp38
g4
(g8
S':\xe2\xeb^\xf7\xba\xd7?'
tRp39
sg4
(g5
(S'S1'
I0
I1
tRp40
(I3
S'|'
NNNI1
I1
I0
tbS'g'
tRp41
g4
(g8
S'\xfdV\xc0J+f\xd2?'
tRp42
sg4
(g5
(S'S1'
I0
I1
tRp43
(I3
S'|'
NNNI1
I1
I0
tbS'f'
tRp44
g4
(g8
S'C\xbeE\x17]t\xd1?'
tRp45
sg4
(g5
(S'S1'
I0
I1
tRp46
(I3
S'|'
NNNI1
I1
I0
tbS'i'
tRp47
g4
(g8
S'\x0c\xed\xd4R\x87\x8b\xd0?'
tRp48
sg4
(g5
(S'S1'
I0
I1
tRp49
(I3
S'|'
NNNI1
I1
I0
tbS'k'
tRp50
g4
(g8
S'\x00O\xf9 [8\xd6?'
tRp51
sg4
(g5
(S'S1'
I0
I1
tRp52
(I3
S'|'
NNNI1
I1
I0
tbS'm'
tRp53
g4
(g8
S'\xcd\xcc\xcc\xcc\xcc\xcc\xc4?'
tRp54
sg4
(g5
(S'S1'
I0
I1
tRp55
(I3
S'|'
NNNI1
I1
I0
tbS'l'
tRp56
g4
(g8
S'4p\x907\xce\x86\xd1?'
tRp57
sg4
(g5
(S'S1'
I0
I1
tRp58
(I3
S'|'
NNNI1
I1
I0
tbS'o'
tRp59
g4
(g8
S'.\xa7\xc2\x19\xbb\xba\xd9?'
tRp60
sg4
(g5
(S'S1'
I0
I1
tRp61
(I3
S'|'
NNNI1
I1
I0
tbS'n'
tRp62
g4
(g8
S'}\x86l\x05\x8c\xae\xda?'
tRp63
sg4
(g5
(S'S1'
I0
I1
tRp64
(I3
S'|'
NNNI1
I1
I0
tbS'p'
tRp65
g4
(g8
S'\xa8dR\x83\x9en\xd4?'
tRp66
sg4
(g5
(S'S1'
I0
I1
tRp67
(I3
S'|'
NNNI1
I1
I0
tbS's'
tRp68
g4
(g8
S'\xe6}b\x0b\x90\xf7\xd2?'
tRp69
sg4
(g5
(S'S1'
I0
I1
tRp70
(I3
S'|'
NNNI1
I1
I0
tbS'r'
tRp71
g4
(g8
S'H\xcb;"\x13\x02\xd6?'
tRp72
sg4
(g5
(S'S1'
I0
I1
tRp73
(I3
S'|'
NNNI1
I1
I0
tbS'u'
tRp74
g4
(g8
S':\xce*X}*\xd8?'
tRp75
sg4
(g5
(S'S1'
I0
I1
tRp76
(I3
S'|'
NNNI1
I1
I0
tbS't'
tRp77
g4
(g8
S'\xbet\x8aIb\xbc\xd3?'
tRp78
sg4
(g5
(S'S1'
I0
I1
tRp79
(I3
S'|'
NNNI1
I1
I0
tbS'w'
tRp80
g4
(g8
S'\x1d4Ux*<\xc5?'
tRp81
sg4
(g5
(S'S1'
I0
I1
tRp82
(I3
S'|'
NNNI1
I1
I0
tbS'y'
tRp83
g4
(g8
S'\xc9\xac\xd0*0\xf6\xd4?'
tRp84
sg4
(g5
(S'S1'
I0
I1
tRp85
(I3
S'|'
NNNI1
I1
I0
tbS'x'
tRp86
g4
(g8
S'\x19\xad\xc4\x1ap\xc5\xca?'
tRp87
sg4
(g5
(S'S1'
I0
I1
tRp88
(I3
S'|'
NNNI1
I1
I0
tbS'z'
tRp89
g4
(g8
S'o\x02\xfeX\xd1\x12\xd0?'
tRp90
ssS'baseline_numpy_legendre'
p91
(dp92
g4
(g5
(S'S2'
I0
I1
tRp93
(I3
S'|'
NNNI2
I1
I0
tbS'rr'
tRp94
g4
(g8
S'\xac\xee\xde\xac\xda-\xd6?'
tRp95
sg4
(g5
(S'S1'
I0
I1
tRp96
(I3
S'|'
NNNI1
I1
I0
tbS'B'
tRp97
g4
(g8
S'\xa5\xa0\xcc\r1 \xcd?'
tRp98
sg4
(g5
(S'S1'
I0
I1
tRp99
(I3
S'|'
NNNI1
I1
I0
tbS'D'
tRp100
g4
(g8
S'K\xb9I\xe5\xc3\xb8\xcf?'
tRp101
sg4
(g5
(S'S1'
I0
I1
tRp102
(I3
S'|'
NNNI1
I1
I0
tbS'G'
tRp103
g4
(g8
S'\x81R\x9a\xff*\xdc\xcd?'
tRp104
sg4
(g5
(S'S1'
I0
I1
tRp105
(I3
S'|'
NNNI1
I1
I0
tbS'N'
tRp106
g4
(g8
S'$c\x199u\x82\xcb?'
tRp107
sg4
(g5
(S'S1'
I0
I1
tRp108
(I3
S'|'
NNNI1
I1
I0
tbS'Y'
tRp109
g4
(g8
S';S\x99\x99\x99\x99\xd9?'
tRp110
sg4
(g5
(S'S1'
I0
I1
tRp111
(I3
S'|'
NNNI1
I1
I0
tbS'a'
tRp112
g4
(g8
S'\xee\x92\xdb\x01m\x13\xd7?'
tRp113
sg4
(g5
(S'S1'
I0
I1
tRp114
(I3
S'|'
NNNI1
I1
I0
tbS'c'
tRp115
g4
(g8
S'r\x82\xfd\xd8\x8f\xfd\xd8?'
tRp116
sg4
(g5
(S'S1'
I0
I1
tRp117
(I3
S'|'
NNNI1
I1
I0
tbS'b'
tRp118
g4
(g8
S'\x8b\x01\xc2\x07\x1f|\xc8?'
tRp119
sg4
(g5
(S'S1'
I0
I1
tRp120
(I3
S'|'
NNNI1
I1
I0
tbS'e'
tRp121
g4
(g8
S'\xb5\x90\x04\xe7\xe2\xa4\xd9?'
tRp122
sg4
(g5
(S'S1'
I0
I1
tRp123
(I3
S'|'
NNNI1
I1
I0
tbS'd'
tRp124
g4
(g8
S':\xe2\xeb^\xf7\xba\xd7?'
tRp125
sg4
(g5
(S'S1'
I0
I1
tRp126
(I3
S'|'
NNNI1
I1
I0
tbS'g'
tRp127
g4
(g8
S'\xfdV\xc0J+f\xd2?'
tRp128
sg4
(g5
(S'S1'
I0
I1
tRp129
(I3
S'|'
NNNI1
I1
I0
tbS'f'
tRp130
g4
(g8
S'C\xbeE\x17]t\xd1?'
tRp131
sg4
(g5
(S'S1'
I0
I1
tRp132
(I3
S'|'
NNNI1
I1
I0
tbS'i'
tRp133
g4
(g8
S'\xae\xa6\xd4R\x87\x8b\xd0?'
tRp134
sg4
(g5
(S'S1'
I0
I1
tRp135
(I3
S'|'
NNNI1
I1
I0
tbS'k'
tRp136
g4
(g8
S'\x00O\xf9 [8\xd6?'
tRp137
sg4
(g5
(S'S1'
I0
I1
tRp138
(I3
S'|'
NNNI1
I1
I0
tbS'm'
tRp139
g4
(g8
S'\xcd\xcc\xcc\xcc\xcc\xcc\xc4?'
tRp140
sg4
(g5
(S'S1'
I0
I1
tRp141
(I3
S'|'
NNNI1
I1
I0
tbS'l'
tRp142
g4
(g8
S'4p\x907\xce\x86\xd1?'
tRp143
sg4
(g5
(S'S1'
I0
I1
tRp144
(I3
S'|'
NNNI1
I1
I0
tbS'o'
tRp145
g4
(g8
S'\x8b\xde?y4\xba\xd9?'
tRp146
sg4
(g5
(S'S1'
I0
I1
tRp147
(I3
S'|'
NNNI1
I1
I0
tbS'n'
tRp148
g4
(g8
S'\xd2g\xc1\n\x9d\xc1\xda?'
tRp149
sg4
(g5
(S'S1'
I0
I1
tRp150
(I3
S'|'
NNNI1
I1
I0
tbS'p'
tRp151
g4
(g8
S'\xa8dR\x83\x9en\xd4?'
tRp152
sg4
(g5
(S'S1'
I0
I1
tRp153
(I3
S'|'
NNNI1
I1
I0
tbS's'
tRp154
g4
(g8
S'\xe4\xfa\x0b\xe0d\xf5\xd2?'
tRp155
sg4
(g5
(S'S1'
I0
I1
tRp156
(I3
S'|'
NNNI1
I1
I0
tbS'r'
tRp157
g4
(g8
S'\xdf\xfb\xaf\xc4C\xff\xd5?'
tRp158
sg4
(g5
(S'S1'
I0
I1
tRp159
(I3
S'|'
NNNI1
I1
I0
tbS'u'
tRp160
g4
(g8
S':\xce*X}*\xd8?'
tRp161
sg4
(g5
(S'S1'
I0
I1
tRp162
(I3
S'|'
NNNI1
I1
I0
tbS't'
tRp163
g4
(g8
S'\xbet\x8aIb\xbc\xd3?'
tRp164
sg4
(g5
(S'S1'
I0
I1
tRp165
(I3
S'|'
NNNI1
I1
I0
tbS'w'
tRp166
g4
(g8
S'\x1d4Ux*<\xc5?'
tRp167
sg4
(g5
(S'S1'
I0
I1
tRp168
(I3
S'|'
NNNI1
I1
I0
tbS'y'
tRp169
g4
(g8
S'\xc9\xac\xd0*0\xf6\xd4?'
tRp170
sg4
(g5
(S'S1'
I0
I1
tRp171
(I3
S'|'
NNNI1
I1
I0
tbS'x'
tRp172
g4
(g8
S'\x19\xad\xc4\x1ap\xc5\xca?'
tRp173
sg4
(g5
(S'S1'
I0
I1
tRp174
(I3
S'|'
NNNI1
I1
I0
tbS'z'
tRp175
g4
(g8
S'o\x02\xfeX\xd1\x12\xd0?'
tRp176
ss.