(dp1
S'baseline_ols'
p2
(dp3
cnumpy.core.multiarray
scalar
p4
(cnumpy
dtype
p5
(S'S2'
I0
I1
tRp6
(I3
S'|'
NNNI2
I1
I0
tbS'rr'
tRp7
g4
(g5
(S'f8'
I0
I1
tRp8
(I3
S'<'
NNNI-1
I-1
I0
tbS'3\xacA=QR\xd6?'
tRp9
sg4
(g5
(S'S1'
I0
I1
tRp10
(I3
S'|'
NNNI1
I1
I0
tbS'B'
tRp11
g4
(g8
S'.\xd8\x0b\xb1\xa24\xce?'
tRp12
sg4
(g5
(S'S1'
I0
I1
tRp13
(I3
S'|'
NNNI1
I1
I0
tbS'D'
tRp14
g4
(g8
S'\xa9\xeap\x9a\xe4.\xd0?'
tRp15
sg4
(g5
(S'S1'
I0
I1
tRp16
(I3
S'|'
NNNI1
I1
I0
tbS'G'
tRp17
g4
(g8
S'\xc5\xc5\x99\xff*\xdc\xcd?'
tRp18
sg4
(g5
(S'S1'
I0
I1
tRp19
(I3
S'|'
NNNI1
I1
I0
tbS'N'
tRp20
g4
(g8
S'\xe8\xb1\xd5=\xef\x06\xcc?'
tRp21
sg4
(g5
(S'S1'
I0
I1
tRp22
(I3
S'|'
NNNI1
I1
I0
tbS'Y'
tRp23
g4
(g8
S'\x9f\x81\xe9o\xd0\xed\xda?'
tRp24
sg4
(g5
(S'S1'
I0
I1
tRp25
(I3
S'|'
NNNI1
I1
I0
tbS'a'
tRp26
g4
(g8
S'\xa7\xa7(^\xab\xfb\xd6?'
tRp27
sg4
(g5
(S'S1'
I0
I1
tRp28
(I3
S'|'
NNNI1
I1
I0
tbS'c'
tRp29
g4
(g8
S'w1\x14`\xc8\xf7\xd8?'
tRp30
sg4
(g5
(S'S1'
I0
I1
tRp31
(I3
S'|'
NNNI1
I1
I0
tbS'b'
tRp32
g4
(g8
S'\xdd:\xf4g6p\xc7?'
tRp33
sg4
(g5
(S'S1'
I0
I1
tRp34
(I3
S'|'
NNNI1
I1
I0
tbS'e'
tRp35
g4
(g8
S'\x1b\xf1Jx>\xcf\xd9?'
tRp36
sg4
(g5
(S'S1'
I0
I1
tRp37
(I3
S'|'
NNNI1
I1
I0
tbS'd'
tRp38
g4
(g8
S'\xdc\x9b\xeb^\xf7\xba\xd7?'
tRp39
sg4
(g5
(S'S1'
I0
I1
tRp40
(I3
S'|'
NNNI1
I1
I0
tbS'g'
tRp41
g4
(g8
S'\xf8\xa19\xcf\xde\xe4\xd1?'
tRp42
sg4
(g5
(S'S1'
I0
I1
tRp43
(I3
S'|'
NNNI1
I1
I0
tbS'f'
tRp44
g4
(g8
S',H\xc9$\x93L\xd2?'
tRp45
sg4
(g5
(S'S1'
I0
I1
tRp46
(I3
S'|'
NNNI1
I1
I0
tbS'i'
tRp47
g4
(g8
S"\x8c'G\xa4e\x9b\xd0?"
tRp48
sg4
(g5
(S'S1'
I0
I1
tRp49
(I3
S'|'
NNNI1
I1
I0
tbS'k'
tRp50
g4
(g8
S'<\x9b8\xe6\x80{\xd6?'
tRp51
sg4
(g5
(S'S1'
I0
I1
tRp52
(I3
S'|'
NNNI1
I1
I0
tbS'm'
tRp53
g4
(g8
S'\xafJ\xd2\xf1\xa4\x15\xc5?'
tRp54
sg4
(g5
(S'S1'
I0
I1
tRp55
(I3
S'|'
NNNI1
I1
I0
tbS'l'
tRp56
g4
(g8
S'.\x92%\xae"\xfe\xd1?'
tRp57
sg4
(g5
(S'S1'
I0
I1
tRp58
(I3
S'|'
NNNI1
I1
I0
tbS'o'
tRp59
g4
(g8
S'\x14T\x9f\xeb\x8f\x97\xd9?'
tRp60
sg4
(g5
(S'S1'
I0
I1
tRp61
(I3
S'|'
NNNI1
I1
I0
tbS'n'
tRp62
g4
(g8
S'\xf7|KKKK\xdb?'
tRp63
sg4
(g5
(S'S1'
I0
I1
tRp64
(I3
S'|'
NNNI1
I1
I0
tbS'p'
tRp65
g4
(g8
S'\x86g\x01\xb5u\x93\xd4?'
tRp66
sg4
(g5
(S'S1'
I0
I1
tRp67
(I3
S'|'
NNNI1
I1
I0
tbS's'
tRp68
g4
(g8
S'\xec\x8ewwww\xd3?'
tRp69
sg4
(g5
(S'S1'
I0
I1
tRp70
(I3
S'|'
NNNI1
I1
I0
tbS'r'
tRp71
g4
(g8
S'8\xf3\xca9\xe4\x05\xd6?'
tRp72
sg4
(g5
(S'S1'
I0
I1
tRp73
(I3
S'|'
NNNI1
I1
I0
tbS'u'
tRp74
g4
(g8
S'l6\xa2\xd7\x85\xa2\xd7?'
tRp75
sg4
(g5
(S'S1'
I0
I1
tRp76
(I3
S'|'
NNNI1
I1
I0
tbS't'
tRp77
g4
(g8
S'\x81\xf6\xbe\xad\xb7\x8a\xd4?'
tRp78
sg4
(g5
(S'S1'
I0
I1
tRp79
(I3
S'|'
NNNI1
I1
I0
tbS'w'
tRp80
g4
(g8
S'^\xa2\xdc$\x06\x81\xc5?'
tRp81
sg4
(g5
(S'S1'
I0
I1
tRp82
(I3
S'|'
NNNI1
I1
I0
tbS'y'
tRp83
g4
(g8
S'\x19\xd5\xe1\x9d\xd1K\xd5?'
tRp84
sg4
(g5
(S'S1'
I0
I1
tRp85
(I3
S'|'
NNNI1
I1
I0
tbS'x'
tRp86
g4
(g8
S'\xd59\xc5\x1ap\xc5\xca?'
tRp87
sg4
(g5
(S'S1'
I0
I1
tRp88
(I3
S'|'
NNNI1
I1
I0
tbS'z'
tRp89
g4
(g8
S'B(a\x88\x12\xd9\xd0?'
tRp90
ssS'baseline_numpy_legendre'
p91
(dp92
g4
(g5
(S'S2'
I0
I1
tRp93
(I3
S'|'
NNNI2
I1
I0
tbS'rr'
tRp94
g4
(g8
S'3\xacA=QR\xd6?'
tRp95
sg4
(g5
(S'S1'
I0
I1
tRp96
(I3
S'|'
NNNI1
I1
I0
tbS'B'
tRp97
g4
(g8
S'.\xd8\x0b\xb1\xa24\xce?'
tRp98
sg4
(g5
(S'S1'
I0
I1
tRp99
(I3
S'|'
NNNI1
I1
I0
tbS'D'
tRp100
g4
(g8
S'\xa9\xeap\x9a\xe4.\xd0?'
tRp101
sg4
(g5
(S'S1'
I0
I1
tRp102
(I3
S'|'
NNNI1
I1
I0
tbS'G'
tRp103
g4
(g8
S'\xc5\xc5\x99\xff*\xdc\xcd?'
tRp104
sg4
(g5
(S'S1'
I0
I1
tRp105
(I3
S'|'
NNNI1
I1
I0
tbS'N'
tRp106
g4
(g8
S'\xe8\xb1\xd5=\xef\x06\xcc?'
tRp107
sg4
(g5
(S'S1'
I0
I1
tRp108
(I3
S'|'
NNNI1
I1
I0
tbS'Y'
tRp109
g4
(g8
S'\x9f\x81\xe9o\xd0\xed\xda?'
tRp110
sg4
(g5
(S'S1'
I0
I1
tRp111
(I3
S'|'
NNNI1
I1
I0
tbS'a'
tRp112
g4
(g8
S'\xa7\xa7(^\xab\xfb\xd6?'
tRp113
sg4
(g5
(S'S1'
I0
I1
tRp114
(I3
S'|'
NNNI1
I1
I0
tbS'c'
tRp115
g4
(g8
S'w1\x14`\xc8\xf7\xd8?'
tRp116
sg4
(g5
(S'S1'
I0
I1
tRp117
(I3
S'|'
NNNI1
I1
I0
tbS'b'
tRp118
g4
(g8
S'\xdd:\xf4g6p\xc7?'
tRp119
sg4
(g5
(S'S1'
I0
I1
tRp120
(I3
S'|'
NNNI1
I1
I0
tbS'e'
tRp121
g4
(g8
S'\xc2a\xf1G2\xd0\xd9?'
tRp122
sg4
(g5
(S'S1'
I0
I1
tRp123
(I3
S'|'
NNNI1
I1
I0
tbS'd'
tRp124
g4
(g8
S'\xdc\x9b\xeb^\xf7\xba\xd7?'
tRp125
sg4
(g5
(S'S1'
I0
I1
tRp126
(I3
S'|'
NNNI1
I1
I0
tbS'g'
tRp127
g4
(g8
S'\xf8\xa19\xcf\xde\xe4\xd1?'
tRp128
sg4
(g5
(S'S1'
I0
I1
tRp129
(I3
S'|'
NNNI1
I1
I0
tbS'f'
tRp130
g4
(g8
S',H\xc9$\x93L\xd2?'
tRp131
sg4
(g5
(S'S1'
I0
I1
tRp132
(I3
S'|'
NNNI1
I1
I0
tbS'i'
tRp133
g4
(g8
S'!\xb0\x8d\x9bl\xa0\xd0?'
tRp134
sg4
(g5
(S'S1'
I0
I1
tRp135
(I3
S'|'
NNNI1
I1
I0
tbS'k'
tRp136
g4
(g8
S'\xdeT8\xe6\x80{\xd6?'
tRp137
sg4
(g5
(S'S1'
I0
I1
tRp138
(I3
S'|'
NNNI1
I1
I0
tbS'm'
tRp139
g4
(g8
S'\xafJ\xd2\xf1\xa4\x15\xc5?'
tRp140
sg4
(g5
(S'S1'
I0
I1
tRp141
(I3
S'|'
NNNI1
I1
I0
tbS'l'
tRp142
g4
(g8
S'.\x92%\xae"\xfe\xd1?'
tRp143
sg4
(g5
(S'S1'
I0
I1
tRp144
(I3
S'|'
NNNI1
I1
I0
tbS'o'
tRp145
g4
(g8
S'\x87GA\xf1I\x9a\xd9?'
tRp146
sg4
(g5
(S'S1'
I0
I1
tRp147
(I3
S'|'
NNNI1
I1
I0
tbS'n'
tRp148
g4
(g8
S'V\xc3KKKK\xdb?'
tRp149
sg4
(g5
(S'S1'
I0
I1
tRp150
(I3
S'|'
NNNI1
I1
I0
tbS'p'
tRp151
g4
(g8
S'\x86g\x01\xb5u\x93\xd4?'
tRp152
sg4
(g5
(S'S1'
I0
I1
tRp153
(I3
S'|'
NNNI1
I1
I0
tbS's'
tRp154
g4
(g8
S'\xec\x8ewwww\xd3?'
tRp155
sg4
(g5
(S'S1'
I0
I1
tRp156
(I3
S'|'
NNNI1
I1
I0
tbS'r'
tRp157
g4
(g8
S'8\xf3\xca9\xe4\x05\xd6?'
tRp158
sg4
(g5
(S'S1'
I0
I1
tRp159
(I3
S'|'
NNNI1
I1
I0
tbS'u'
tRp160
g4
(g8
S'l6\xa2\xd7\x85\xa2\xd7?'
tRp161
sg4
(g5
(S'S1'
I0
I1
tRp162
(I3
S'|'
NNNI1
I1
I0
tbS't'
tRp163
g4
(g8
S'#\xb0\xbe\xad\xb7\x8a\xd4?'
tRp164
sg4
(g5
(S'S1'
I0
I1
tRp165
(I3
S'|'
NNNI1
I1
I0
tbS'w'
tRp166
g4
(g8
S'^\xa2\xdc$\x06\x81\xc5?'
tRp167
sg4
(g5
(S'S1'
I0
I1
tRp168
(I3
S'|'
NNNI1
I1
I0
tbS'y'
tRp169
g4
(g8
S'\x19\xd5\xe1\x9d\xd1K\xd5?'
tRp170
sg4
(g5
(S'S1'
I0
I1
tRp171
(I3
S'|'
NNNI1
I1
I0
tbS'x'
tRp172
g4
(g8
S'\xd59\xc5\x1ap\xc5\xca?'
tRp173
sg4
(g5
(S'S1'
I0
I1
tRp174
(I3
S'|'
NNNI1
I1
I0
tbS'z'
tRp175
g4
(g8
S'B(a\x88\x12\xd9\xd0?'
tRp176
ss.