(dp1
S'baseline_ols'
p2
(dp3
cnumpy.core.multiarray
scalar
p4
(cnumpy
dtype
p5
(S'S2'
I0
I1
tRp6
(I3
S'|'
NNNI2
I1
I0
tbS'rr'
tRp7
g4
(g5
(S'f8'
I0
I1
tRp8
(I3
S'<'
NNNI-1
I-1
I0
tbS'\x17{\x83\x0c\xb8\x1d\xd5?'
tRp9
sg4
(g5
(S'S1'
I0
I1
tRp10
(I3
S'|'
NNNI1
I1
I0
tbS'B'
tRp11
g4
(g8
S'h\xaaE\xde\xf9[\xcc?'
tRp12
sg4
(g5
(S'S1'
I0
I1
tRp13
(I3
S'|'
NNNI1
I1
I0
tbS'D'
tRp14
g4
(g8
S'\xd9\xe5\x92\xca\x87q\xcf?'
tRp15
sg4
(g5
(S'S1'
I0
I1
tRp16
(I3
S'|'
NNNI1
I1
I0
tbS'G'
tRp17
g4
(g8
S';\xf8Q\xcb\xf1/\xce?'
tRp18
sg4
(g5
(S'S1'
I0
I1
tRp19
(I3
S'|'
NNNI1
I1
I0
tbS'N'
tRp20
g4
(g8
S'\xf2\x10\x846\xe2\xf5\xcb?'
tRp21
sg4
(g5
(S'S1'
I0
I1
tRp22
(I3
S'|'
NNNI1
I1
I0
tbS'Y'
tRp23
g4
(g8
S'\x9a\x99\x99\x99\x99\x99\xd9?'
tRp24
sg4
(g5
(S'S1'
I0
I1
tRp25
(I3
S'|'
NNNI1
I1
I0
tbS'a'
tRp26
g4
(g8
S'_\xd0k8X\x1b\xd7?'
tRp27
sg4
(g5
(S'S1'
I0
I1
tRp28
(I3
S'|'
NNNI1
I1
I0
tbS'c'
tRp29
g4
(g8
S'\xabM\\6\x82\xea\xd9?'
tRp30
sg4
(g5
(S'S1'
I0
I1
tRp31
(I3
S'|'
NNNI1
I1
I0
tbS'b'
tRp32
g4
(g8
S'\x16\x03\x84\x0f>\xf8\xc8?'
tRp33
sg4
(g5
(S'S1'
I0
I1
tRp34
(I3
S'|'
NNNI1
I1
I0
tbS'e'
tRp35
g4
(g8
S'3$\x13\xe9\x81\xca\xd9?'
tRp36
sg4
(g5
(S'S1'
I0
I1
tRp37
(I3
S'|'
NNNI1
I1
I0
tbS'd'
tRp38
g4
(g8
S'\x07\x19\xe6u\xec>\xda?'
tRp39
sg4
(g5
(S'S1'
I0
I1
tRp40
(I3
S'|'
NNNI1
I1
I0
tbS'g'
tRp41
g4
(g8
S'\x1f\x90\xaf\xa1\xbc\x86\xd2?'
tRp42
sg4
(g5
(S'S1'
I0
I1
tRp43
(I3
S'|'
NNNI1
I1
I0
tbS'f'
tRp44
g4
(g8
S'\xd5\xec2333\xd3?'
tRp45
sg4
(g5
(S'S1'
I0
I1
tRp46
(I3
S'|'
NNNI1
I1
I0
tbS'i'
tRp47
g4
(g8
S'\x9a\x08\xc2\xf5\x01F\xd0?'
tRp48
sg4
(g5
(S'S1'
I0
I1
tRp49
(I3
S'|'
NNNI1
I1
I0
tbS'k'
tRp50
g4
(g8
S'\x149,d!\x0b\xd6?'
tRp51
sg4
(g5
(S'S1'
I0
I1
tRp52
(I3
S'|'
NNNI1
I1
I0
tbS'm'
tRp53
g4
(g8
S'\x9c\x8c\xa4|\xcf&\xc4?'
tRp54
sg4
(g5
(S'S1'
I0
I1
tRp55
(I3
S'|'
NNNI1
I1
I0
tbS'l'
tRp56
g4
(g8
S'\xeb\x01\xe8^\xdfz\xd1?'
tRp57
sg4
(g5
(S'S1'
I0
I1
tRp58
(I3
S'|'
NNNI1
I1
I0
tbS'o'
tRp59
g4
(g8
S'\x82\xf3!{-\x9b\xd9?'
tRp60
sg4
(g5
(S'S1'
I0
I1
tRp61
(I3
S'|'
NNNI1
I1
I0
tbS'n'
tRp62
g4
(g8
S'L\x1c\x83\xa5\xe1\n\xdb?'
tRp63
sg4
(g5
(S'S1'
I0
I1
tRp64
(I3
S'|'
NNNI1
I1
I0
tbS'p'
tRp65
g4
(g8
S'%D^\x98o\xef\xd3?'
tRp66
sg4
(g5
(S'S1'
I0
I1
tRp67
(I3
S'|'
NNNI1
I1
I0
tbS's'
tRp68
g4
(g8
S'\x1c\x91\xee\xee\xee\xee\xd2?'
tRp69
sg4
(g5
(S'S1'
I0
I1
tRp70
(I3
S'|'
NNNI1
I1
I0
tbS'r'
tRp71
g4
(g8
S'-\x89=\xd1\xcd\x08\xd6?'
tRp72
sg4
(g5
(S'S1'
I0
I1
tRp73
(I3
S'|'
NNNI1
I1
I0
tbS'u'
tRp74
g4
(g8
S'6r;\x19\xb0\xa7\xd7?'
tRp75
sg4
(g5
(S'S1'
I0
I1
tRp76
(I3
S'|'
NNNI1
I1
I0
tbS't'
tRp77
g4
(g8
S'#~3w3w\xd3?'
tRp78
sg4
(g5
(S'S1'
I0
I1
tRp79
(I3
S'|'
NNNI1
I1
I0
tbS'w'
tRp80
g4
(g8
S'\xbe\x87\xadG\xe1z\xc4?'
tRp81
sg4
(g5
(S'S1'
I0
I1
tRp82
(I3
S'|'
NNNI1
I1
I0
tbS'y'
tRp83
g4
(g8
S'\xd6\xca\xbf\xb7\x8e\xa0\xd4?'
tRp84
sg4
(g5
(S'S1'
I0
I1
tRp85
(I3
S'|'
NNNI1
I1
I0
tbS'x'
tRp86
g4
(g8
S'\x9e\xf3\xfa\x897@\xca?'
tRp87
sg4
(g5
(S'S1'
I0
I1
tRp88
(I3
S'|'
NNNI1
I1
I0
tbS'z'
tRp89
g4
(g8
S'\x14\x17E\xe4\xfb\xcf\xce?'
tRp90
ssS'baseline_numpy_legendre'
p91
(dp92
g4
(g5
(S'S2'
I0
I1
tRp93
(I3
S'|'
NNNI2
I1
I0
tbS'rr'
tRp94
g4
(g8
S'\x17{\x83\x0c\xb8\x1d\xd5?'
tRp95
sg4
(g5
(S'S1'
I0
I1
tRp96
(I3
S'|'
NNNI1
I1
I0
tbS'B'
tRp97
g4
(g8
S'h\xaaE\xde\xf9[\xcc?'
tRp98
sg4
(g5
(S'S1'
I0
I1
tRp99
(I3
S'|'
NNNI1
I1
I0
tbS'D'
tRp100
g4
(g8
S'\xd9\xe5\x92\xca\x87q\xcf?'
tRp101
sg4
(g5
(S'S1'
I0
I1
tRp102
(I3
S'|'
NNNI1
I1
I0
tbS'G'
tRp103
g4
(g8
S';\xf8Q\xcb\xf1/\xce?'
tRp104
sg4
(g5
(S'S1'
I0
I1
tRp105
(I3
S'|'
NNNI1
I1
I0
tbS'N'
tRp106
g4
(g8
S'\xf2\x10\x846\xe2\xf5\xcb?'
tRp107
sg4
(g5
(S'S1'
I0
I1
tRp108
(I3
S'|'
NNNI1
I1
I0
tbS'Y'
tRp109
g4
(g8
S'\x9a\x99\x99\x99\x99\x99\xd9?'
tRp110
sg4
(g5
(S'S1'
I0
I1
tRp111
(I3
S'|'
NNNI1
I1
I0
tbS'a'
tRp112
g4
(g8
S'\x1c]l8X\x1b\xd7?'
tRp113
sg4
(g5
(S'S1'
I0
I1
tRp114
(I3
S'|'
NNNI1
I1
I0
tbS'c'
tRp115
g4
(g8
S'\xabM\\6\x82\xea\xd9?'
tRp116
sg4
(g5
(S'S1'
I0
I1
tRp117
(I3
S'|'
NNNI1
I1
I0
tbS'b'
tRp118
g4
(g8
S'\x16\x03\x84\x0f>\xf8\xc8?'
tRp119
sg4
(g5
(S'S1'
I0
I1
tRp120
(I3
S'|'
NNNI1
I1
I0
tbS'e'
tRp121
g4
(g8
S'3$\x13\xe9\x81\xca\xd9?'
tRp122
sg4
(g5
(S'S1'
I0
I1
tRp123
(I3
S'|'
NNNI1
I1
I0
tbS'd'
tRp124
g4
(g8
S'\x07\x19\xe6u\xec>\xda?'
tRp125
sg4
(g5
(S'S1'
I0
I1
tRp126
(I3
S'|'
NNNI1
I1
I0
tbS'g'
tRp127
g4
(g8
S'\x1f\x90\xaf\xa1\xbc\x86\xd2?'
tRp128
sg4
(g5
(S'S1'
I0
I1
tRp129
(I3
S'|'
NNNI1
I1
I0
tbS'f'
tRp130
g4
(g8
S'\xd5\xec2333\xd3?'
tRp131
sg4
(g5
(S'S1'
I0
I1
tRp132
(I3
S'|'
NNNI1
I1
I0
tbS'i'
tRp133
g4
(g8
S'1\xb4\x81\xd2\xc9H\xd0?'
tRp134
sg4
(g5
(S'S1'
I0
I1
tRp135
(I3
S'|'
NNNI1
I1
I0
tbS'k'
tRp136
g4
(g8
S'\x149,d!\x0b\xd6?'
tRp137
sg4
(g5
(S'S1'
I0
I1
tRp138
(I3
S'|'
NNNI1
I1
I0
tbS'm'
tRp139
g4
(g8
S'\x9c\x8c\xa4|\xcf&\xc4?'
tRp140
sg4
(g5
(S'S1'
I0
I1
tRp141
(I3
S'|'
NNNI1
I1
I0
tbS'l'
tRp142
g4
(g8
S'\x8d\xbb\xe7^\xdfz\xd1?'
tRp143
sg4
(g5
(S'S1'
I0
I1
tRp144
(I3
S'|'
NNNI1
I1
I0
tbS'o'
tRp145
g4
(g8
S'\x1f\xdf\x93G\xa3\x9b\xd9?'
tRp146
sg4
(g5
(S'S1'
I0
I1
tRp147
(I3
S'|'
NNNI1
I1
I0
tbS'n'
tRp148
g4
(g8
S'\xc8\x14\x91\x93\xbe\x1b\xdb?'
tRp149
sg4
(g5
(S'S1'
I0
I1
tRp150
(I3
S'|'
NNNI1
I1
I0
tbS'p'
tRp151
g4
(g8
S'%D^\x98o\xef\xd3?'
tRp152
sg4
(g5
(S'S1'
I0
I1
tRp153
(I3
S'|'
NNNI1
I1
I0
tbS's'
tRp154
g4
(g8
S'z\xd7\xee\xee\xee\xee\xd2?'
tRp155
sg4
(g5
(S'S1'
I0
I1
tRp156
(I3
S'|'
NNNI1
I1
I0
tbS'r'
tRp157
g4
(g8
S'\x8b\xcf=\xd1\xcd\x08\xd6?'
tRp158
sg4
(g5
(S'S1'
I0
I1
tRp159
(I3
S'|'
NNNI1
I1
I0
tbS'u'
tRp160
g4
(g8
S'6r;\x19\xb0\xa7\xd7?'
tRp161
sg4
(g5
(S'S1'
I0
I1
tRp162
(I3
S'|'
NNNI1
I1
I0
tbS't'
tRp163
g4
(g8
S'\x82\xc43w3w\xd3?'
tRp164
sg4
(g5
(S'S1'
I0
I1
tRp165
(I3
S'|'
NNNI1
I1
I0
tbS'w'
tRp166
g4
(g8
S'\xbe\x87\xadG\xe1z\xc4?'
tRp167
sg4
(g5
(S'S1'
I0
I1
tRp168
(I3
S'|'
NNNI1
I1
I0
tbS'y'
tRp169
g4
(g8
S'x\x84\xbf\xb7\x8e\xa0\xd4?'
tRp170
sg4
(g5
(S'S1'
I0
I1
tRp171
(I3
S'|'
NNNI1
I1
I0
tbS'x'
tRp172
g4
(g8
S'\x9e\xf3\xfa\x897@\xca?'
tRp173
sg4
(g5
(S'S1'
I0
I1
tRp174
(I3
S'|'
NNNI1
I1
I0
tbS'z'
tRp175
g4
(g8
S'\x14\x17E\xe4\xfb\xcf\xce?'
tRp176
ss.