(dp1
S'baseline_ols'
p2
(dp3
cnumpy.core.multiarray
scalar
p4
(cnumpy
dtype
p5
(S'S2'
I0
I1
tRp6
(I3
S'|'
NNNI2
I1
I0
tbS'rr'
tRp7
g4
(g5
(S'f8'
I0
I1
tRp8
(I3
S'<'
NNNI-1
I-1
I0
tbS'\x86\x9b\x83[!\xf3\xd4?'
tRp9
sg4
(g5
(S'S1'
I0
I1
tRp10
(I3
S'|'
NNNI1
I1
I0
tbS'B'
tRp11
g4
(g8
S'\xf1\xd6@\xef\xd4\xb5\xcc?'
tRp12
sg4
(g5
(S'S1'
I0
I1
tRp13
(I3
S'|'
NNNI1
I1
I0
tbS'D'
tRp14
g4
(g8
S'J\x99\xb8\xddT\xd6\xce?'
tRp15
sg4
(g5
(S'S1'
I0
I1
tRp16
(I3
S'|'
NNNI1
I1
I0
tbS'G'
tRp17
g4
(g8
S'\x089\x99\xff*\xdc\xcd?'
tRp18
sg4
(g5
(S'S1'
I0
I1
tRp19
(I3
S'|'
NNNI1
I1
I0
tbS'N'
tRp20
g4
(g8
S'\xfa\n\xe9\x8d\tB\xcb?'
tRp21
sg4
(g5
(S'S1'
I0
I1
tRp22
(I3
S'|'
NNNI1
I1
I0
tbS'Y'
tRp23
g4
(g8
S'+oX\xe9\xa9\x85\xd5?'
tRp24
sg4
(g5
(S'S1'
I0
I1
tRp25
(I3
S'|'
NNNI1
I1
I0
tbS'a'
tRp26
g4
(g8
S"\xa8\xe9'j\xac\x10\xd7?"
tRp27
sg4
(g5
(S'S1'
I0
I1
tRp28
(I3
S'|'
NNNI1
I1
I0
tbS'c'
tRp29
g4
(g8
S'\xd0]Gi\x00\x16\xd9?'
tRp30
sg4
(g5
(S'S1'
I0
I1
tRp31
(I3
S'|'
NNNI1
I1
I0
tbS'b'
tRp32
g4
(g8
S'\xc6\x00\xe1\x83\x0f>\xc8?'
tRp33
sg4
(g5
(S'S1'
I0
I1
tRp34
(I3
S'|'
NNNI1
I1
I0
tbS'e'
tRp35
g4
(g8
S'd\x88\x1f\xc8\xd4\xb8\xd9?'
tRp36
sg4
(g5
(S'S1'
I0
I1
tRp37
(I3
S'|'
NNNI1
I1
I0
tbS'd'
tRp38
g4
(g8
S'i\xd0\x8cg<\xe3\xd9?'
tRp39
sg4
(g5
(S'S1'
I0
I1
tRp40
(I3
S'|'
NNNI1
I1
I0
tbS'g'
tRp41
g4
(g8
S'\xdc\x16\xaf\xf2\xcd\xad\xd1?'
tRp42
sg4
(g5
(S'S1'
I0
I1
tRp43
(I3
S'|'
NNNI1
I1
I0
tbS'f'
tRp44
g4
(g8
S'333333\xd3?'
tRp45
sg4
(g5
(S'S1'
I0
I1
tRp46
(I3
S'|'
NNNI1
I1
I0
tbS'i'
tRp47
g4
(g8
S'\x90\xe8=\x10\xf8@\xd0?'
tRp48
sg4
(g5
(S'S1'
I0
I1
tRp49
(I3
S'|'
NNNI1
I1
I0
tbS'k'
tRp50
g4
(g8
S'FZ\xe6z\x93J\xd6?'
tRp51
sg4
(g5
(S'S1'
I0
I1
tRp52
(I3
S'|'
NNNI1
I1
I0
tbS'm'
tRp53
g4
(g8
S'B?x\xef[\xe7\xc3?'
tRp54
sg4
(g5
(S'S1'
I0
I1
tRp55
(I3
S'|'
NNNI1
I1
I0
tbS'l'
tRp56
g4
(g8
S'\x02\xde\xdarx\xc2\xd1?'
tRp57
sg4
(g5
(S'S1'
I0
I1
tRp58
(I3
S'|'
NNNI1
I1
I0
tbS'o'
tRp59
g4
(g8
S'\xc1\x1a\x88\xa5\xf5c\xd9?'
tRp60
sg4
(g5
(S'S1'
I0
I1
tRp61
(I3
S'|'
NNNI1
I1
I0
tbS'n'
tRp62
g4
(g8
S'\xcd\xfa\x8fk"\x90\xdb?'
tRp63
sg4
(g5
(S'S1'
I0
I1
tRp64
(I3
S'|'
NNNI1
I1
I0
tbS'p'
tRp65
g4
(g8
S'`z[\x84\x80\xd2\xd3?'
tRp66
sg4
(g5
(S'S1'
I0
I1
tRp67
(I3
S'|'
NNNI1
I1
I0
tbS's'
tRp68
g4
(g8
S'\x92y3333\xd3?'
tRp69
sg4
(g5
(S'S1'
I0
I1
tRp70
(I3
S'|'
NNNI1
I1
I0
tbS'r'
tRp71
g4
(g8
S'`d\x1e>\xad\xbd\xd5?'
tRp72
sg4
(g5
(S'S1'
I0
I1
tRp73
(I3
S'|'
NNNI1
I1
I0
tbS'u'
tRp74
g4
(g8
S'\x18\xb8\x1aW\x8e\x1a\xd7?'
tRp75
sg4
(g5
(S'S1'
I0
I1
tRp76
(I3
S'|'
NNNI1
I1
I0
tbS't'
tRp77
g4
(g8
S'8\x03\xfa\xc9mR\xd3?'
tRp78
sg4
(g5
(S'S1'
I0
I1
tRp79
(I3
S'|'
NNNI1
I1
I0
tbS'w'
tRp80
g4
(g8
S'n\xfa\x15\xd9\xce\xf7\xc3?'
tRp81
sg4
(g5
(S'S1'
I0
I1
tRp82
(I3
S'|'
NNNI1
I1
I0
tbS'y'
tRp83
g4
(g8
S'nh\xb2\x8a\xd3\x81\xd4?'
tRp84
sg4
(g5
(S'S1'
I0
I1
tRp85
(I3
S'|'
NNNI1
I1
I0
tbS'x'
tRp86
g4
(g8
S'vNB\x98\xedB\xc8?'
tRp87
sg4
(g5
(S'S1'
I0
I1
tRp88
(I3
S'|'
NNNI1
I1
I0
tbS'z'
tRp89
g4
(g8
S'd\xde\xa0\x89\xc8\xf7\xcf?'
tRp90
ssS'baseline_numpy_legendre'
p91
(dp92
g4
(g5
(S'S2'
I0
I1
tRp93
(I3
S'|'
NNNI2
I1
I0
tbS'rr'
tRp94
g4
(g8
S'\x86\x9b\x83[!\xf3\xd4?'
tRp95
sg4
(g5
(S'S1'
I0
I1
tRp96
(I3
S'|'
NNNI1
I1
I0
tbS'B'
tRp97
g4
(g8
S'\xf1\xd6@\xef\xd4\xb5\xcc?'
tRp98
sg4
(g5
(S'S1'
I0
I1
tRp99
(I3
S'|'
NNNI1
I1
I0
tbS'D'
tRp100
g4
(g8
S'J\x99\xb8\xddT\xd6\xce?'
tRp101
sg4
(g5
(S'S1'
I0
I1
tRp102
(I3
S'|'
NNNI1
I1
I0
tbS'G'
tRp103
g4
(g8
S'\x089\x99\xff*\xdc\xcd?'
tRp104
sg4
(g5
(S'S1'
I0
I1
tRp105
(I3
S'|'
NNNI1
I1
I0
tbS'N'
tRp106
g4
(g8
S'\xfa\n\xe9\x8d\tB\xcb?'
tRp107
sg4
(g5
(S'S1'
I0
I1
tRp108
(I3
S'|'
NNNI1
I1
I0
tbS'Y'
tRp109
g4
(g8
S'+oX\xe9\xa9\x85\xd5?'
tRp110
sg4
(g5
(S'S1'
I0
I1
tRp111
(I3
S'|'
NNNI1
I1
I0
tbS'a'
tRp112
g4
(g8
S'\xa5\xf5I\xcb\x81\x0b\xd7?'
tRp113
sg4
(g5
(S'S1'
I0
I1
tRp114
(I3
S'|'
NNNI1
I1
I0
tbS'c'
tRp115
g4
(g8
S'\xd0]Gi\x00\x16\xd9?'
tRp116
sg4
(g5
(S'S1'
I0
I1
tRp117
(I3
S'|'
NNNI1
I1
I0
tbS'b'
tRp118
g4
(g8
S'\xc6\x00\xe1\x83\x0f>\xc8?'
tRp119
sg4
(g5
(S'S1'
I0
I1
tRp120
(I3
S'|'
NNNI1
I1
I0
tbS'e'
tRp121
g4
(g8
S'\x03-\x14\x92u\xbb\xd9?'
tRp122
sg4
(g5
(S'S1'
I0
I1
tRp123
(I3
S'|'
NNNI1
I1
I0
tbS'd'
tRp124
g4
(g8
S'i\xd0\x8cg<\xe3\xd9?'
tRp125
sg4
(g5
(S'S1'
I0
I1
tRp126
(I3
S'|'
NNNI1
I1
I0
tbS'g'
tRp127
g4
(g8
S'\xdc\x16\xaf\xf2\xcd\xad\xd1?'
tRp128
sg4
(g5
(S'S1'
I0
I1
tRp129
(I3
S'|'
NNNI1
I1
I0
tbS'f'
tRp130
g4
(g8
S'333333\xd3?'
tRp131
sg4
(g5
(S'S1'
I0
I1
tRp132
(I3
S'|'
NNNI1
I1
I0
tbS'i'
tRp133
g4
(g8
S'\x90\xe8=\x10\xf8@\xd0?'
tRp134
sg4
(g5
(S'S1'
I0
I1
tRp135
(I3
S'|'
NNNI1
I1
I0
tbS'k'
tRp136
g4
(g8
S'FZ\xe6z\x93J\xd6?'
tRp137
sg4
(g5
(S'S1'
I0
I1
tRp138
(I3
S'|'
NNNI1
I1
I0
tbS'm'
tRp139
g4
(g8
S'\x88)_\xe7F\xc7\xc3?'
tRp140
sg4
(g5
(S'S1'
I0
I1
tRp141
(I3
S'|'
NNNI1
I1
I0
tbS'l'
tRp142
g4
(g8
S'\x0f\x8c\xa7\x86x\xc3\xd1?'
tRp143
sg4
(g5
(S'S1'
I0
I1
tRp144
(I3
S'|'
NNNI1
I1
I0
tbS'o'
tRp145
g4
(g8
S'\x96=+\xee\x9dd\xd9?'
tRp146
sg4
(g5
(S'S1'
I0
I1
tRp147
(I3
S'|'
NNNI1
I1
I0
tbS'n'
tRp148
g4
(g8
S'\xcd\xfa\x8fk"\x90\xdb?'
tRp149
sg4
(g5
(S'S1'
I0
I1
tRp150
(I3
S'|'
NNNI1
I1
I0
tbS'p'
tRp151
g4
(g8
S'`z[\x84\x80\xd2\xd3?'
tRp152
sg4
(g5
(S'S1'
I0
I1
tRp153
(I3
S'|'
NNNI1
I1
I0
tbS's'
tRp154
g4
(g8
S'\x92y3333\xd3?'
tRp155
sg4
(g5
(S'S1'
I0
I1
tRp156
(I3
S'|'
NNNI1
I1
I0
tbS'r'
tRp157
g4
(g8
S'\xae\x04\xc6\xac\xa6\xc0\xd5?'
tRp158
sg4
(g5
(S'S1'
I0
I1
tRp159
(I3
S'|'
NNNI1
I1
I0
tbS'u'
tRp160
g4
(g8
S'\x18\xb8\x1aW\x8e\x1a\xd7?'
tRp161
sg4
(g5
(S'S1'
I0
I1
tRp162
(I3
S'|'
NNNI1
I1
I0
tbS't'
tRp163
g4
(g8
S'8\x03\xfa\xc9mR\xd3?'
tRp164
sg4
(g5
(S'S1'
I0
I1
tRp165
(I3
S'|'
NNNI1
I1
I0
tbS'w'
tRp166
g4
(g8
S'n\xfa\x15\xd9\xce\xf7\xc3?'
tRp167
sg4
(g5
(S'S1'
I0
I1
tRp168
(I3
S'|'
NNNI1
I1
I0
tbS'y'
tRp169
g4
(g8
S'nh\xb2\x8a\xd3\x81\xd4?'
tRp170
sg4
(g5
(S'S1'
I0
I1
tRp171
(I3
S'|'
NNNI1
I1
I0
tbS'x'
tRp172
g4
(g8
S'vNB\x98\xedB\xc8?'
tRp173
sg4
(g5
(S'S1'
I0
I1
tRp174
(I3
S'|'
NNNI1
I1
I0
tbS'z'
tRp175
g4
(g8
S'd\xde\xa0\x89\xc8\xf7\xcf?'
tRp176
ss.